target datalayout = "e-m:e-p270:32:32-p271:32:32-p272:64:64-i64:64-i128:128-f80:128-n8:16:32:64-S128"
target triple = "x86_64-pc-linux-gnu"

%"struct.std::atomic" = type { %"struct.std::__atomic_base" }
%"struct.std::__atomic_base" = type { i64 }
%struct.mi_heap_s = type { ptr, %"struct.std::atomic.4", i64, i32, i64, [2 x i64], %struct.mi_random_cxt_s, i64, i64, i64, i64, i64, ptr, i8, i8, [129 x ptr], [75 x %struct.mi_page_queue_s] }
%"struct.std::atomic.4" = type { %"struct.std::__atomic_base.5" }
%"struct.std::__atomic_base.5" = type { ptr }
%struct.mi_random_cxt_s = type { [16 x i32], [16 x i32], i32, i8 }
%struct.mi_page_queue_s = type { ptr, ptr, i64 }
%union.mi_page_flags_s = type { i8 }
%struct.mi_page_s = type { i32, i32, i8, i16, i16, %union.mi_page_flags_s, i8, ptr, ptr, i16, i8, i8, i64, ptr, %"struct.std::atomic", %"struct.std::atomic", ptr, ptr, [1 x ptr] }

; Function Attrs: mustprogress nounwind uwtable
define linkonce_odr noundef i32 @_ZStanSt12memory_orderSt23__memory_order_modifier(i32 noundef %0, i32 noundef %1) #5 comdat {
  %3 = alloca i32, align 4
  %4 = alloca i32, align 4
  store i32 %0, ptr %3, align 4, !tbaa !32
  store i32 %1, ptr %4, align 4, !tbaa !428
  %5 = load i32, ptr %3, align 4, !tbaa !32
  %6 = load i32, ptr %4, align 4, !tbaa !428
  %7 = and i32 %5, %6
  ret i32 %7
}

; Function Attrs: alwaysinline mustprogress nounwind uwtable
define linkonce_odr hidden void @_ZNSt13__atomic_baseIP10mi_block_sE5storeES1_St12memory_order(ptr noundef nonnull align 8 dereferenceable(8) %0, ptr noundef %1, i32 noundef %2) #17 comdat align 2 {
  %4 = alloca ptr, align 8
  %5 = alloca ptr, align 8
  %6 = alloca i32, align 4
  %7 = alloca i32, align 4
  %8 = alloca ptr, align 8
  store ptr %0, ptr %4, align 8, !tbaa !436
  store ptr %1, ptr %5, align 8, !tbaa !27
  store i32 %2, ptr %6, align 4, !tbaa !32
  %9 = load ptr, ptr %4, align 8
  call void @llvm.lifetime.start.p0(i64 4, ptr %7) #19
  %10 = load i32, ptr %6, align 4, !tbaa !32
  %11 = call noundef i32 @_ZStanSt12memory_orderSt23__memory_order_modifier(i32 noundef %10, i32 noundef 65535)
  store i32 %11, ptr %7, align 4, !tbaa !32
  br label %12

12:                                               ; preds = %3
  br label %13

13:                                               ; preds = %12
  br label %14

14:                                               ; preds = %13
  br label %15

15:                                               ; preds = %14
  br label %16

16:                                               ; preds = %15
  br label %17

17:                                               ; preds = %16
  br label %18

18:                                               ; preds = %17
  br label %19

19:                                               ; preds = %18
  br label %20

20:                                               ; preds = %19
  %21 = getelementptr inbounds nuw %"struct.std::__atomic_base.5", ptr %9, i32 0, i32 0
  %22 = load i32, ptr %6, align 4, !tbaa !32
  %23 = load ptr, ptr %5, align 8, !tbaa !27
  store ptr %23, ptr %8, align 8, !tbaa !27
  switch i32 %22, label %24 [
    i32 3, label %26
    i32 5, label %28
  ]

24:                                               ; preds = %20
  %25 = load i64, ptr %8, align 8
  store atomic i64 %25, ptr %21 monotonic, align 8
  br label %30

26:                                               ; preds = %20
  %27 = load i64, ptr %8, align 8
  store atomic i64 %27, ptr %21 release, align 8
  br label %30

28:                                               ; preds = %20
  %29 = load i64, ptr %8, align 8
  store atomic i64 %29, ptr %21 seq_cst, align 8
  br label %30

30:                                               ; preds = %28, %26, %24
  call void @llvm.lifetime.end.p0(i64 4, ptr %7) #19
  ret void
}

; Function Attrs: mustprogress nounwind uwtable
define linkonce_odr hidden noundef ptr @_ZNSt13__atomic_baseIP10mi_block_sEaSES1_(ptr noundef nonnull align 8 dereferenceable(8) %0, ptr noundef %1) #5 comdat align 2 {
  %3 = alloca ptr, align 8
  %4 = alloca ptr, align 8
  store ptr %0, ptr %3, align 8, !tbaa !436
  store ptr %1, ptr %4, align 8, !tbaa !27
  %5 = load ptr, ptr %3, align 8
  %6 = load ptr, ptr %4, align 8, !tbaa !27
  call void @_ZNSt13__atomic_baseIP10mi_block_sE5storeES1_St12memory_order(ptr noundef nonnull align 8 dereferenceable(8) %5, ptr noundef %6, i32 noundef 5) #19
  %7 = load ptr, ptr %4, align 8, !tbaa !27
  ret ptr %7
}

; Function Attrs: inlinehint mustprogress nounwind uwtable
define internal void @_ZL10_mi_memcpyPvPKvm(ptr noundef %0, ptr noundef %1, i64 noundef %2) #3 {
  %4 = alloca ptr, align 8
  %5 = alloca ptr, align 8
  %6 = alloca i64, align 8
  store ptr %0, ptr %4, align 8, !tbaa !8
  store ptr %1, ptr %5, align 8, !tbaa !8
  store i64 %2, ptr %6, align 8, !tbaa !18
  %7 = load ptr, ptr %4, align 8, !tbaa !8
  %8 = load ptr, ptr %5, align 8, !tbaa !8
  %9 = load i64, ptr %6, align 8, !tbaa !18
  call void @llvm.memcpy.p0.p0.i64(ptr align 1 %7, ptr align 1 %8, i64 %9, i1 false)
  ret void
}

; Function Attrs: mustprogress nounwind uwtable
define linkonce_odr hidden noundef ptr @_ZNSt6atomicIP10mi_block_sEaSES1_(ptr noundef nonnull align 8 dereferenceable(8) %0, ptr noundef %1) #5 comdat align 2 {
  %3 = alloca ptr, align 8
  %4 = alloca ptr, align 8
  store ptr %0, ptr %3, align 8, !tbaa !314
  store ptr %1, ptr %4, align 8, !tbaa !27
  %5 = load ptr, ptr %3, align 8
  %6 = getelementptr inbounds nuw %"struct.std::atomic.4", ptr %5, i32 0, i32 0
  %7 = load ptr, ptr %4, align 8, !tbaa !27
  %8 = call noundef ptr @_ZNSt13__atomic_baseIP10mi_block_sEaSES1_(ptr noundef nonnull align 8 dereferenceable(8) %6, ptr noundef %7) #19
  ret ptr %8
}

; Function Attrs: inlinehint mustprogress nounwind uwtable
define internal void @_ZL18_mi_memcpy_alignedPvPKvm(ptr noundef %0, ptr noundef %1, i64 noundef %2) #3 {
  %4 = alloca ptr, align 8
  %5 = alloca ptr, align 8
  %6 = alloca i64, align 8
  %7 = alloca ptr, align 8
  %8 = alloca ptr, align 8
  store ptr %0, ptr %4, align 8, !tbaa !8
  store ptr %1, ptr %5, align 8, !tbaa !8
  store i64 %2, ptr %6, align 8, !tbaa !18
  call void @llvm.lifetime.start.p0(i64 8, ptr %7) #19
  %9 = load ptr, ptr %4, align 8, !tbaa !8
  call void @llvm.assume(i1 true) [ "align"(ptr %9, i64 8) ]
  store ptr %9, ptr %7, align 8, !tbaa !8
  call void @llvm.lifetime.start.p0(i64 8, ptr %8) #19
  %10 = load ptr, ptr %5, align 8, !tbaa !8
  call void @llvm.assume(i1 true) [ "align"(ptr %10, i64 8) ]
  store ptr %10, ptr %8, align 8, !tbaa !8
  %11 = load ptr, ptr %7, align 8, !tbaa !8
  %12 = load ptr, ptr %8, align 8, !tbaa !8
  %13 = load i64, ptr %6, align 8, !tbaa !18
  call void @_ZL10_mi_memcpyPvPKvm(ptr noundef %11, ptr noundef %12, i64 noundef %13)
  call void @llvm.lifetime.end.p0(i64 8, ptr %8) #19
  call void @llvm.lifetime.end.p0(i64 8, ptr %7) #19
  ret void
}

; Function Attrs: mustprogress nounwind uwtable
define internal void @_ZL19mi_heap_reset_pagesP9mi_heap_s(ptr noundef %0) #5 {
  %2 = alloca ptr, align 8
  store ptr %0, ptr %2, align 8, !tbaa !42
  %3 = load ptr, ptr %2, align 8, !tbaa !42
  %4 = getelementptr inbounds nuw %struct.mi_heap_s, ptr %3, i32 0, i32 15
  call void @llvm.memset.p0.i64(ptr align 8 %4, i8 0, i64 1032, i1 false)
  %5 = load ptr, ptr %2, align 8, !tbaa !42
  %6 = getelementptr inbounds nuw %struct.mi_heap_s, ptr %5, i32 0, i32 16
  call void @_ZL18_mi_memcpy_alignedPvPKvm(ptr noundef %6, ptr noundef getelementptr inbounds nuw (%struct.mi_heap_s, ptr @_mi_heap_empty, i32 0, i32 16), i64 noundef 1800)
  %7 = load ptr, ptr %2, align 8, !tbaa !42
  %8 = getelementptr inbounds nuw %struct.mi_heap_s, ptr %7, i32 0, i32 1
  %9 = call noundef ptr @_ZNSt6atomicIP10mi_block_sEaSES1_(ptr noundef nonnull align 8 dereferenceable(8) %8, ptr noundef null) #19
  %10 = load ptr, ptr %2, align 8, !tbaa !42
  %11 = getelementptr inbounds nuw %struct.mi_heap_s, ptr %10, i32 0, i32 7
  store i64 0, ptr %11, align 8, !tbaa !198
  ret void
}

; Function Attrs: mustprogress uwtable
define internal noundef zeroext i1 @_ZL19mi_heap_visit_pagesP9mi_heap_sPFbS0_P15mi_page_queue_sP9mi_page_sPvS5_ES5_S5_(ptr noundef %0, ptr noundef %1, ptr noundef %2, ptr noundef %3) #0 {
  %5 = alloca i1, align 1
  %6 = alloca ptr, align 8
  %7 = alloca ptr, align 8
  %8 = alloca ptr, align 8
  %9 = alloca ptr, align 8
  %10 = alloca i64, align 8
  %11 = alloca i32, align 4
  %12 = alloca ptr, align 8
  %13 = alloca ptr, align 8
  %14 = alloca ptr, align 8
  store ptr %0, ptr %6, align 8, !tbaa !42
  store ptr %1, ptr %7, align 8, !tbaa !8
  store ptr %2, ptr %8, align 8, !tbaa !8
  store ptr %3, ptr %9, align 8, !tbaa !8
  %15 = load ptr, ptr %6, align 8, !tbaa !42
  %16 = icmp eq ptr %15, null
  br i1 %16, label %22, label %17

17:                                               ; preds = %4
  %18 = load ptr, ptr %6, align 8, !tbaa !42
  %19 = getelementptr inbounds nuw %struct.mi_heap_s, ptr %18, i32 0, i32 7
  %20 = load i64, ptr %19, align 8, !tbaa !198
  %21 = icmp eq i64 %20, 0
  br i1 %21, label %22, label %23

22:                                               ; preds = %17, %4
  store i1 false, ptr %5, align 1
  br label %66

23:                                               ; preds = %17
  call void @llvm.lifetime.start.p0(i64 8, ptr %10) #19
  store i64 0, ptr %10, align 8, !tbaa !18
  br label %24

24:                                               ; preds = %60, %23
  %25 = load i64, ptr %10, align 8, !tbaa !18
  %26 = icmp ule i64 %25, 74
  br i1 %26, label %28, label %27

27:                                               ; preds = %24
  store i32 2, ptr %11, align 4
  br label %63

28:                                               ; preds = %24
  call void @llvm.lifetime.start.p0(i64 8, ptr %12) #19
  %29 = load ptr, ptr %6, align 8, !tbaa !42
  %30 = getelementptr inbounds nuw %struct.mi_heap_s, ptr %29, i32 0, i32 16
  %31 = load i64, ptr %10, align 8, !tbaa !18
  %32 = getelementptr inbounds nuw [75 x %struct.mi_page_queue_s], ptr %30, i64 0, i64 %31
  store ptr %32, ptr %12, align 8, !tbaa !199
  call void @llvm.lifetime.start.p0(i64 8, ptr %13) #19
  %33 = load ptr, ptr %12, align 8, !tbaa !199
  %34 = getelementptr inbounds nuw %struct.mi_page_queue_s, ptr %33, i32 0, i32 0
  %35 = load ptr, ptr %34, align 8, !tbaa !201
  store ptr %35, ptr %13, align 8, !tbaa !3
  br label %36

36:                                               ; preds = %55, %28
  %37 = load ptr, ptr %13, align 8, !tbaa !3
  %38 = icmp ne ptr %37, null
  br i1 %38, label %39, label %56

39:                                               ; preds = %36
  call void @llvm.lifetime.start.p0(i64 8, ptr %14) #19
  %40 = load ptr, ptr %13, align 8, !tbaa !3
  %41 = getelementptr inbounds nuw %struct.mi_page_s, ptr %40, i32 0, i32 16
  %42 = load ptr, ptr %41, align 8, !tbaa !203
  store ptr %42, ptr %14, align 8, !tbaa !3
  %43 = load ptr, ptr %7, align 8, !tbaa !8
  %44 = load ptr, ptr %6, align 8, !tbaa !42
  %45 = load ptr, ptr %12, align 8, !tbaa !199
  %46 = load ptr, ptr %13, align 8, !tbaa !3
  %47 = load ptr, ptr %8, align 8, !tbaa !8
  %48 = load ptr, ptr %9, align 8, !tbaa !8
  %49 = call noundef zeroext i1 %43(ptr noundef %44, ptr noundef %45, ptr noundef %46, ptr noundef %47, ptr noundef %48)
  br i1 %49, label %51, label %50

50:                                               ; preds = %39
  store i1 false, ptr %5, align 1
  store i32 1, ptr %11, align 4
  br label %53

51:                                               ; preds = %39
  %52 = load ptr, ptr %14, align 8, !tbaa !3
  store ptr %52, ptr %13, align 8, !tbaa !3
  store i32 0, ptr %11, align 4
  br label %53

53:                                               ; preds = %51, %50
  call void @llvm.lifetime.end.p0(i64 8, ptr %14) #19
  %54 = load i32, ptr %11, align 4
  switch i32 %54, label %57 [
    i32 0, label %55
  ]

55:                                               ; preds = %53
  br label %36, !llvm.loop !204

56:                                               ; preds = %36
  store i32 0, ptr %11, align 4
  br label %57

57:                                               ; preds = %56, %53
  call void @llvm.lifetime.end.p0(i64 8, ptr %13) #19
  call void @llvm.lifetime.end.p0(i64 8, ptr %12) #19
  %58 = load i32, ptr %11, align 4
  switch i32 %58, label %63 [
    i32 0, label %59
  ]

59:                                               ; preds = %57
  br label %60

60:                                               ; preds = %59
  %61 = load i64, ptr %10, align 8, !tbaa !18
  %62 = add i64 %61, 1
  store i64 %62, ptr %10, align 8, !tbaa !18
  br label %24, !llvm.loop !205

63:                                               ; preds = %57, %27
  call void @llvm.lifetime.end.p0(i64 8, ptr %10) #19
  %64 = load i32, ptr %11, align 4
  switch i32 %64, label %68 [
    i32 2, label %65
    i32 1, label %66
  ]

65:                                               ; preds = %63
  store i1 true, ptr %5, align 1
  br label %66

66:                                               ; preds = %65, %63, %22
  %67 = load i1, ptr %5, align 1
  ret i1 %67

68:                                               ; preds = %63
  unreachable
}

; Function Attrs: mustprogress uwtable
define hidden void @_Z22_mi_heap_destroy_pagesP9mi_heap_s(ptr noundef %0) #0 {
  %2 = alloca ptr, align 8
  store ptr %0, ptr %2, align 8, !tbaa !42
  %3 = load ptr, ptr %2, align 8, !tbaa !42
  %4 = call noundef zeroext i1 @_ZL19mi_heap_visit_pagesP9mi_heap_sPFbS0_P15mi_page_queue_sP9mi_page_sPvS5_ES5_S5_(ptr noundef %3, ptr noundef @_ZL21_mi_heap_page_destroyP9mi_heap_sP15mi_page_queue_sP9mi_page_sPvS5_, ptr noundef null, ptr noundef null)
  %5 = load ptr, ptr %2, align 8, !tbaa !42
  call void @_ZL19mi_heap_reset_pagesP9mi_heap_s(ptr noundef %5)
  ret void
}