; Function Attrs: mustprogress uwtable
define hidden void @_Z22_mi_heap_destroy_pagesP9mi_heap_s(ptr noundef %0) local_unnamed_addr #6 personality ptr @__gxx_personality_v0 {
  %2 = icmp eq ptr %0, null
  br i1 %2, label %_ZL19mi_heap_visit_pagesP9mi_heap_sPFbS0_P15mi_page_queue_sP9mi_page_sPvS5_ES5_S5_.exit, label %3

3:                                                ; preds = %1
  %4 = getelementptr inbounds nuw i8, ptr %0, i64 192
  %5 = load i64, ptr %4, align 8, !tbaa !200
  %6 = icmp eq i64 %5, 0
  br i1 %6, label %_ZL19mi_heap_visit_pagesP9mi_heap_sPFbS0_P15mi_page_queue_sP9mi_page_sPvS5_ES5_S5_.exit, label %.preheader.i

.preheader.i:                                     ; preds = %3
  %7 = getelementptr inbounds nuw i8, ptr %0, i64 1280
  br label %8

8:                                                ; preds = %.critedge.i, %.preheader.i
  %.02229.i = phi i64 [ 0, %.preheader.i ], [ %44, %.critedge.i ]
  %9 = getelementptr inbounds nuw [75 x %struct.mi_page_queue_s], ptr %7, i64 0, i64 %.02229.i
  %10 = load ptr, ptr %9, align 8, !tbaa !201
  %.not.i2 = icmp eq ptr %10, null
  br i1 %.not.i2, label %.critedge.i, label %.lr.ph

.lr.ph:                                           ; preds = %8, %_ZL21_mi_heap_page_destroyP9mi_heap_sP15mi_page_queue_sP9mi_page_sPvS5_.exit
  %.020.i3 = phi ptr [ %12, %_ZL21_mi_heap_page_destroyP9mi_heap_sP15mi_page_queue_sP9mi_page_sPvS5_.exit ], [ %10, %8 ]
  %11 = getelementptr inbounds nuw i8, ptr %.020.i3, i64 72
  %12 = load ptr, ptr %11, align 8, !tbaa !202
  %13 = getelementptr inbounds nuw i8, ptr %.020.i3, i64 56
  br label %.critedge.outer.i.i.i

.critedge.outer.i.i.i:                            ; preds = %.critedge.outer.i.i.i.backedge, %.lr.ph
  %.0.ph.i.i.i = phi i64 [ 0, %.lr.ph ], [ %.0.ph.i.i.i.be, %.critedge.outer.i.i.i.backedge ]
  br label %.critedge.i.i.i

.critedge.i.i.i:                                  ; preds = %21, %.critedge.outer.i.i.i
  %14 = load atomic i64, ptr %13 acquire, align 8
  %15 = trunc i64 %14 to i32
  %16 = and i32 %15, 3
  switch i32 %16, label %21 [
    i32 1, label %17
    i32 3, label %_Z25_mi_page_use_delayed_freeP9mi_page_s12mi_delayed_eb.exit.i
  ], !prof !203

17:                                               ; preds = %.critedge.i.i.i
  %exitcond.i.i.i = icmp eq i64 %.0.ph.i.i.i, 4
  br i1 %exitcond.i.i.i, label %_Z29_mi_page_try_use_delayed_freeP9mi_page_s12mi_delayed_eb.exit.i.i, label %18

18:                                               ; preds = %17
  %19 = add nuw nsw i64 %.0.ph.i.i.i, 1
  %20 = tail call noundef i32 @sched_yield() #55
  br label %.critedge.outer.i.i.i.backedge

.critedge.outer.i.i.i.backedge:                   ; preds = %18, %_Z29_mi_page_try_use_delayed_freeP9mi_page_s12mi_delayed_eb.exit.i.i
  %.0.ph.i.i.i.be = phi i64 [ %19, %18 ], [ 0, %_Z29_mi_page_try_use_delayed_freeP9mi_page_s12mi_delayed_eb.exit.i.i ]
  br label %.critedge.outer.i.i.i, !llvm.loop !204

21:                                               ; preds = %.critedge.i.i.i
  %22 = or i64 %14, 3
  %23 = cmpxchg weak ptr %13, i64 %14, i64 %22 release monotonic, align 8
  %24 = extractvalue { i64, i1 } %23, 1
  br i1 %24, label %_Z25_mi_page_use_delayed_freeP9mi_page_s12mi_delayed_eb.exit.i, label %.critedge.i.i.i, !llvm.loop !26

_Z29_mi_page_try_use_delayed_freeP9mi_page_s12mi_delayed_eb.exit.i.i: ; preds = %17
  %25 = tail call noundef i32 @sched_yield() #55
  br label %.critedge.outer.i.i.i.backedge

_Z25_mi_page_use_delayed_freeP9mi_page_s12mi_delayed_eb.exit.i: ; preds = %21, %.critedge.i.i.i
  %26 = getelementptr inbounds nuw i8, ptr %.020.i3, i64 32
  store i16 0, ptr %26, align 8, !tbaa !22
  tail call void @llvm.memset.p0.i64(ptr noundef nonnull align 8 dereferenceable(16) %11, i8 0, i64 16, i1 false)
  %27 = load ptr, ptr %0, align 8, !tbaa !186
  %28 = getelementptr inbounds nuw i8, ptr %27, i64 32
  %29 = ptrtoint ptr %.020.i3 to i64
  %30 = add i64 %29, -1
  %31 = and i64 %30, -33554432
  %32 = inttoptr i64 %31 to ptr
  %33 = tail call fastcc noundef ptr @_ZL21mi_segment_page_clearP9mi_page_sP17mi_segments_tld_s(ptr noundef nonnull %.020.i3, ptr noundef nonnull %28)
  %34 = getelementptr inbounds nuw i8, ptr %32, i64 216
  %35 = load i64, ptr %34, align 8, !tbaa !207
  %36 = icmp eq i64 %35, 0
  br i1 %36, label %37, label %38

37:                                               ; preds = %_Z25_mi_page_use_delayed_freeP9mi_page_s12mi_delayed_eb.exit.i
  tail call fastcc void @_ZL15mi_segment_freeP12mi_segment_sbP17mi_segments_tld_s(ptr noundef nonnull %32, ptr noundef nonnull %28)
  br label %_ZL21_mi_heap_page_destroyP9mi_heap_sP15mi_page_queue_sP9mi_page_sPvS5_.exit

38:                                               ; preds = %_Z25_mi_page_use_delayed_freeP9mi_page_s12mi_delayed_eb.exit.i
  %39 = getelementptr inbounds nuw i8, ptr %32, i64 200
  %40 = load i64, ptr %39, align 8, !tbaa !208
  %41 = icmp eq i64 %35, %40
  br i1 %41, label %42, label %43

42:                                               ; preds = %38
  tail call fastcc void @_ZL18mi_segment_abandonP12mi_segment_sP17mi_segments_tld_s(ptr noundef nonnull %32, ptr noundef nonnull %28)
  br label %_ZL21_mi_heap_page_destroyP9mi_heap_sP15mi_page_queue_sP9mi_page_sPvS5_.exit

43:                                               ; preds = %38
  tail call fastcc void @_ZL20mi_segment_try_purgeP12mi_segment_sb(ptr noundef nonnull %32, i1 noundef zeroext false)
  br label %_ZL21_mi_heap_page_destroyP9mi_heap_sP15mi_page_queue_sP9mi_page_sPvS5_.exit

_ZL21_mi_heap_page_destroyP9mi_heap_sP15mi_page_queue_sP9mi_page_sPvS5_.exit: ; preds = %37, %42, %43
  %.not.i = icmp eq ptr %12, null
  br i1 %.not.i, label %.critedge.i, label %.lr.ph, !llvm.loop !205

.critedge.i:                                      ; preds = %_ZL21_mi_heap_page_destroyP9mi_heap_sP15mi_page_queue_sP9mi_page_sPvS5_.exit, %8
  %44 = add nuw nsw i64 %.02229.i, 1
  %exitcond.i = icmp eq i64 %44, 75
  br i1 %exitcond.i, label %_ZL19mi_heap_visit_pagesP9mi_heap_sPFbS0_P15mi_page_queue_sP9mi_page_sPvS5_ES5_S5_.exit, label %8, !llvm.loop !206

_ZL19mi_heap_visit_pagesP9mi_heap_sPFbS0_P15mi_page_queue_sP9mi_page_sPvS5_ES5_S5_.exit: ; preds = %.critedge.i, %1, %3
  %45 = getelementptr inbounds nuw i8, ptr %0, i64 248
  tail call void @llvm.memset.p0.i64(ptr noundef nonnull align 8 dereferenceable(1032) %45, i8 0, i64 1032, i1 false)
  %46 = getelementptr inbounds nuw i8, ptr %0, i64 1280
  call void @llvm.assume(i1 true) [ "align"(ptr %46, i64 8) ]
  call void @llvm.assume(i1 true) [ "align"(ptr getelementptr inbounds nuw (i8, ptr @_mi_heap_empty, i64 1280), i64 8) ]
  tail call void @llvm.memcpy.p0.p0.i64(ptr noundef nonnull align 8 dereferenceable(1800) %46, ptr noundef nonnull readonly align 64 dereferenceable(1800) getelementptr inbounds nuw (i8, ptr @_mi_heap_empty, i64 1280), i64 1800, i1 false)
  %47 = getelementptr inbounds nuw i8, ptr %0, i64 8
  store atomic i64 0, ptr %47 seq_cst, align 8
  %48 = getelementptr inbounds nuw i8, ptr %0, i64 192
  store i64 0, ptr %48, align 8, !tbaa !200
  ret void
}